target datalayout = "e-m:e-p270:32:32-p271:32:32-p272:64:64-i64:64-i128:128-f80:128-n8:16:32:64-S128"
target triple = "x86_64-pc-linux-gnu"

%"struct.duckdb_zstd::ZSTD_frameSizeInfo" = type { i64, i64, i64 }

; Function Attrs: mustprogress uwtable
define internal noundef i64 @_ZN11duckdb_zstdL37ZSTD_findFrameCompressedSize_advancedEPKvmNS_13ZSTD_format_eE(ptr noundef %0, i64 noundef %1, i32 noundef %2) #0 {
  %4 = alloca ptr, align 8
  %5 = alloca i64, align 8
  %6 = alloca i32, align 4
  %7 = alloca %"struct.duckdb_zstd::ZSTD_frameSizeInfo", align 8
  store ptr %0, ptr %4, align 8, !tbaa !33
  store i64 %1, ptr %5, align 8, !tbaa !34
  store i32 %2, ptr %6, align 4, !tbaa !55
  call void @llvm.lifetime.start.p0(i64 24, ptr %7) #12
  %8 = load ptr, ptr %4, align 8, !tbaa !33
  %9 = load i64, ptr %5, align 8, !tbaa !34
  %10 = load i32, ptr %6, align 4, !tbaa !55
  call void @_ZN11duckdb_zstdL22ZSTD_findFrameSizeInfoEPKvmNS_13ZSTD_format_eE(ptr dead_on_unwind writable sret(%"struct.duckdb_zstd::ZSTD_frameSizeInfo") align 8 %7, ptr noundef %8, i64 noundef %9, i32 noundef %10)
  %11 = getelementptr inbounds nuw %"struct.duckdb_zstd::ZSTD_frameSizeInfo", ptr %7, i32 0, i32 1
  %12 = load i64, ptr %11, align 8, !tbaa !69
  call void @llvm.lifetime.end.p0(i64 24, ptr %7) #12
  ret i64 %12
}

; Function Attrs: mustprogress uwtable
define noundef i64 @_ZN11duckdb_zstd28ZSTD_findFrameCompressedSizeEPKvm(ptr noundef %0, i64 noundef %1) #0 {
  %3 = alloca ptr, align 8
  %4 = alloca i64, align 8
  store ptr %0, ptr %3, align 8, !tbaa !33
  store i64 %1, ptr %4, align 8, !tbaa !34
  %5 = load ptr, ptr %3, align 8, !tbaa !33
  %6 = load i64, ptr %4, align 8, !tbaa !34
  %7 = call noundef i64 @_ZN11duckdb_zstdL37ZSTD_findFrameCompressedSize_advancedEPKvmNS_13ZSTD_format_eE(ptr noundef %5, i64 noundef %6, i32 noundef 0)
  ret i64 %7
}