; Function Attrs: mustprogress uwtable
define noundef i64 @_ZN11duckdb_zstd28ZSTD_findFrameCompressedSizeEPKvm(ptr noundef %0, i64 noundef %1) local_unnamed_addr #0 {
  %3 = alloca %"struct.duckdb_zstd::ZSTD_frameSizeInfo", align 8
  call void @llvm.lifetime.start.p0(i64 24, ptr nonnull %3) #17
  call fastcc void @_ZN11duckdb_zstdL22ZSTD_findFrameSizeInfoEPKvmNS_13ZSTD_format_eE(ptr dead_on_unwind noalias writable align 8 %3, ptr noundef %0, i64 noundef %1, i32 noundef 0)
  %4 = getelementptr inbounds nuw i8, ptr %3, i64 8
  %5 = load i64, ptr %4, align 8, !tbaa !69
  call void @llvm.lifetime.end.p0(i64 24, ptr nonnull %3) #17
  ret i64 %5
}